; Function Attrs: mustprogress uwtable
define noundef zeroext i1 @_ZN11OpenImageIO6v3_1_012ImageBufAlgo9laplacianERNS0_8ImageBufERKS2_NS0_3ROIEi(ptr noundef nonnull align 8 dereferenceable(16) %0, ptr noundef nonnull align 8 dereferenceable(16) %1, ptr noundef nonnull byval(%"struct.OpenImageIO::v3_1_0::ROI") align 8 %2, i32 noundef %3) local_unnamed_addr #5 personality ptr @__gxx_personality_v0 {
  %5 = alloca %"class.OpenImageIO::v3_1_0::ImageBuf", align 8
  %6 = alloca %"class.OpenImageIO::v3_1_0::basic_string_view", align 8
  %7 = alloca %"class.std::__cxx11::basic_string", align 8
  %8 = call noundef zeroext i1 @_ZN11OpenImageIO6v3_1_012ImageBufAlgo7IBAprepERNS0_3ROIEPNS0_8ImageBufEPKS4_S7_S7_PNS0_9ImageSpecEi(ptr noundef nonnull align 4 dereferenceable(32) %2, ptr noundef nonnull %0, ptr noundef nonnull %1, ptr noundef null, ptr noundef null, ptr noundef null, i32 noundef 20)
  br i1 %8, label %9, label %44

9:                                                ; preds = %4
  call void @llvm.lifetime.start.p0(i64 16, ptr nonnull %5) #28
  store ptr @.str.41, ptr %6, align 8, !tbaa !88
  %10 = getelementptr inbounds nuw i8, ptr %6, i64 8
  store i64 9, ptr %10, align 8, !tbaa !90
  call void @_ZN11OpenImageIO6v3_1_012ImageBufAlgo11make_kernelENS0_17basic_string_viewIcSt11char_traitsIcEEEfffb(ptr dead_on_unwind nonnull writable sret(%"class.OpenImageIO::v3_1_0::ImageBuf") align 8 %5, ptr noundef nonnull %6, float noundef 3.000000e+00, float noundef 3.000000e+00, float noundef 1.000000e+00, i1 noundef zeroext true)
  %11 = invoke noundef zeroext i1 @_ZNK11OpenImageIO6v3_1_08ImageBuf9has_errorEv(ptr noundef nonnull align 8 dereferenceable(16) %5)
          to label %12 unwind label %24

12:                                               ; preds = %9
  br i1 %11, label %13, label %38

13:                                               ; preds = %12
  call void @llvm.lifetime.start.p0(i64 32, ptr nonnull %7) #28
  invoke void @_ZNK11OpenImageIO6v3_1_08ImageBuf8geterrorB5cxx11Eb(ptr dead_on_unwind nonnull writable sret(%"class.std::__cxx11::basic_string") align 8 %7, ptr noundef nonnull align 8 dereferenceable(16) %5, i1 noundef zeroext true)
          to label %14 unwind label %26

14:                                               ; preds = %13
  invoke void @_ZNK11OpenImageIO6v3_1_08ImageBuf8errorfmtIA3_cJNSt7__cxx1112basic_stringIcSt11char_traitsIcESaIcEEEEEEvRKT_DpOT0_(ptr noundef nonnull align 8 dereferenceable(16) %0, ptr noundef nonnull align 1 dereferenceable(3) @.str.38, ptr noundef nonnull align 8 dereferenceable(32) %7)
          to label %15 unwind label %28

15:                                               ; preds = %14
  %16 = load ptr, ptr %7, align 8, !tbaa !63
  %17 = getelementptr inbounds nuw i8, ptr %7, i64 16
  %18 = icmp eq ptr %16, %17
  br i1 %18, label %_ZNKSt7__cxx1112basic_stringIcSt11char_traitsIcESaIcEE11_M_is_localEv.exit.thread.i.i, label %_ZNKSt7__cxx1112basic_stringIcSt11char_traitsIcESaIcEE11_M_is_localEv.exit.i.i

_ZNKSt7__cxx1112basic_stringIcSt11char_traitsIcESaIcEE11_M_is_localEv.exit.thread.i.i: ; preds = %15
  %19 = getelementptr inbounds nuw i8, ptr %7, i64 8
  %20 = load i64, ptr %19, align 8, !tbaa !55
  %21 = icmp ult i64 %20, 16
  call void @llvm.assume(i1 %21)
  br label %_ZNSt7__cxx1112basic_stringIcSt11char_traitsIcESaIcEED2Ev.exit

_ZNKSt7__cxx1112basic_stringIcSt11char_traitsIcESaIcEE11_M_is_localEv.exit.i.i: ; preds = %15
  %22 = load i64, ptr %17, align 8, !tbaa !96
  %23 = add i64 %22, 1
  call void @_ZdlPvm(ptr noundef %16, i64 noundef %23) #29
  br label %_ZNSt7__cxx1112basic_stringIcSt11char_traitsIcESaIcEED2Ev.exit

_ZNSt7__cxx1112basic_stringIcSt11char_traitsIcESaIcEED2Ev.exit: ; preds = %_ZNKSt7__cxx1112basic_stringIcSt11char_traitsIcESaIcEE11_M_is_localEv.exit.thread.i.i, %_ZNKSt7__cxx1112basic_stringIcSt11char_traitsIcESaIcEE11_M_is_localEv.exit.i.i
  call void @llvm.lifetime.end.p0(i64 32, ptr nonnull %7) #28
  br label %42

24:                                               ; preds = %9
  %25 = landingpad { ptr, i32 }
          cleanup
  br label %43

26:                                               ; preds = %13
  %27 = landingpad { ptr, i32 }
          cleanup
  br label %_ZNSt7__cxx1112basic_stringIcSt11char_traitsIcESaIcEED2Ev.exit17

28:                                               ; preds = %14
  %29 = landingpad { ptr, i32 }
          cleanup
  %30 = load ptr, ptr %7, align 8, !tbaa !63
  %31 = getelementptr inbounds nuw i8, ptr %7, i64 16
  %32 = icmp eq ptr %30, %31
  br i1 %32, label %_ZNKSt7__cxx1112basic_stringIcSt11char_traitsIcESaIcEE11_M_is_localEv.exit.thread.i.i16, label %_ZNKSt7__cxx1112basic_stringIcSt11char_traitsIcESaIcEE11_M_is_localEv.exit.i.i15

_ZNKSt7__cxx1112basic_stringIcSt11char_traitsIcESaIcEE11_M_is_localEv.exit.thread.i.i16: ; preds = %28
  %33 = getelementptr inbounds nuw i8, ptr %7, i64 8
  %34 = load i64, ptr %33, align 8, !tbaa !55
  %35 = icmp ult i64 %34, 16
  call void @llvm.assume(i1 %35)
  br label %_ZNSt7__cxx1112basic_stringIcSt11char_traitsIcESaIcEED2Ev.exit17

_ZNKSt7__cxx1112basic_stringIcSt11char_traitsIcESaIcEE11_M_is_localEv.exit.i.i15: ; preds = %28
  %36 = load i64, ptr %31, align 8, !tbaa !96
  %37 = add i64 %36, 1
  call void @_ZdlPvm(ptr noundef %30, i64 noundef %37) #29
  br label %_ZNSt7__cxx1112basic_stringIcSt11char_traitsIcESaIcEED2Ev.exit17

_ZNSt7__cxx1112basic_stringIcSt11char_traitsIcESaIcEED2Ev.exit17: ; preds = %_ZNKSt7__cxx1112basic_stringIcSt11char_traitsIcESaIcEE11_M_is_localEv.exit.i.i15, %_ZNKSt7__cxx1112basic_stringIcSt11char_traitsIcESaIcEE11_M_is_localEv.exit.thread.i.i16, %26
  %.pn = phi { ptr, i32 } [ %27, %26 ], [ %29, %_ZNKSt7__cxx1112basic_stringIcSt11char_traitsIcESaIcEE11_M_is_localEv.exit.thread.i.i16 ], [ %29, %_ZNKSt7__cxx1112basic_stringIcSt11char_traitsIcESaIcEE11_M_is_localEv.exit.i.i15 ]
  call void @llvm.lifetime.end.p0(i64 32, ptr nonnull %7) #28
  br label %43

38:                                               ; preds = %12
  %39 = invoke noundef zeroext i1 @_ZN11OpenImageIO6v3_1_012ImageBufAlgo8convolveERNS0_8ImageBufERKS2_S5_bNS0_3ROIEi(ptr noundef nonnull align 8 dereferenceable(16) %0, ptr noundef nonnull align 8 dereferenceable(16) %1, ptr noundef nonnull align 8 dereferenceable(16) %5, i1 noundef zeroext false, ptr noundef nonnull byval(%"struct.OpenImageIO::v3_1_0::ROI") align 8 %2, i32 noundef %3)
          to label %42 unwind label %40

40:                                               ; preds = %38
  %41 = landingpad { ptr, i32 }
          cleanup
  br label %43

42:                                               ; preds = %38, %_ZNSt7__cxx1112basic_stringIcSt11char_traitsIcESaIcEED2Ev.exit
  %.1 = phi i1 [ false, %_ZNSt7__cxx1112basic_stringIcSt11char_traitsIcESaIcEED2Ev.exit ], [ %39, %38 ]
  call void @_ZN11OpenImageIO6v3_1_08ImageBufD1Ev(ptr noundef nonnull align 8 dereferenceable(16) %5) #28
  call void @llvm.lifetime.end.p0(i64 16, ptr nonnull %5) #28
  br label %44

43:                                               ; preds = %40, %_ZNSt7__cxx1112basic_stringIcSt11char_traitsIcESaIcEED2Ev.exit17, %24
  %.pn.pn = phi { ptr, i32 } [ %.pn, %_ZNSt7__cxx1112basic_stringIcSt11char_traitsIcESaIcEED2Ev.exit17 ], [ %41, %40 ], [ %25, %24 ]
  call void @_ZN11OpenImageIO6v3_1_08ImageBufD1Ev(ptr noundef nonnull align 8 dereferenceable(16) %5) #28
  call void @llvm.lifetime.end.p0(i64 16, ptr nonnull %5) #28
  resume { ptr, i32 } %.pn.pn

44:                                               ; preds = %4, %42
  %.0 = phi i1 [ %.1, %42 ], [ false, %4 ]
  ret i1 %.0
}